; Function Attrs: nounwind sspstrong uwtable
define dso_local noundef zeroext i1 @visit_type_ImageInfoSpecificVmdk_members(ptr noundef %v, ptr noundef %obj, ptr noundef %errp) local_unnamed_addr #0 {
entry:
  %call = tail call zeroext i1 @visit_type_str(ptr noundef %v, ptr noundef nonnull @.str.21, ptr noundef %obj, ptr noundef %errp) #5
  br i1 %call, label %if.end, label %return

if.end:                                           ; preds = %entry
  %cid = getelementptr inbounds nuw i8, ptr %obj, i64 8
  %call1 = tail call zeroext i1 @visit_type_int(ptr noundef %v, ptr noundef nonnull @.str.22, ptr noundef nonnull %cid, ptr noundef %errp) #5
  br i1 %call1, label %if.end3, label %return

if.end3:                                          ; preds = %if.end
  %parent_cid = getelementptr inbounds nuw i8, ptr %obj, i64 16
  %call4 = tail call zeroext i1 @visit_type_int(ptr noundef %v, ptr noundef nonnull @.str.23, ptr noundef nonnull %parent_cid, ptr noundef %errp) #5
  br i1 %call4, label %if.end6, label %return

if.end6:                                          ; preds = %if.end3
  %extents = getelementptr inbounds nuw i8, ptr %obj, i64 24
  %call7 = tail call zeroext i1 @visit_type_VmdkExtentInfoList(ptr noundef %v, ptr noundef nonnull @.str.24, ptr noundef nonnull %extents, ptr noundef %errp)
  br label %return

return:                                           ; preds = %if.end6, %if.end3, %if.end, %entry
  %retval.0 = phi i1 [ false, %entry ], [ false, %if.end ], [ false, %if.end3 ], [ %call7, %if.end6 ]
  ret i1 %retval.0
}